target datalayout = "e-m:e-p270:32:32-p271:32:32-p272:64:64-i64:64-i128:128-f80:128-n8:16:32:64-S128"
target triple = "x86_64-pc-linux-gnu"

%struct.FunctionCallInfoBaseData = type { ptr, ptr, ptr, i32, i8, i16, [0 x %struct.NullableDatum] }
%struct.NullableDatum = type { i64, i8 }
%struct.anon = type { i32, [0 x i8] }
%struct.varattrib_1b = type { i8, [0 x i8] }
%struct.varattrib_1b_e = type { i8, i8, [0 x i8] }

@lo_cleanup_needed = internal global i8 0, align 1
@CurrentMemoryContext = external global ptr, align 8
@.str.19 = private unnamed_addr constant [16 x i8] c"lo_from_bytea()\00", align 1

; Function Attrs: inlinehint nounwind uwtable
define internal i64 @ObjectIdGetDatum(i32 noundef %0) #2 {
  %2 = alloca i32, align 4
  store i32 %0, ptr %2, align 4
  %3 = load i32, ptr %2, align 4
  %4 = zext i32 %3 to i64
  ret i64 %4
}

; Function Attrs: inlinehint nounwind uwtable
define internal ptr @DatumGetPointer(i64 noundef %0) #2 {
  %2 = alloca i64, align 8
  store i64 %0, ptr %2, align 8
  %3 = load i64, ptr %2, align 8
  %4 = inttoptr i64 %3 to ptr
  ret ptr %4
}

; Function Attrs: inlinehint nounwind uwtable
define internal i32 @DatumGetObjectId(i64 noundef %0) #2 {
  %2 = alloca i64, align 8
  store i64 %0, ptr %2, align 8
  %3 = load i64, ptr %2, align 8
  %4 = trunc i64 %3 to i32
  ret i32 %4
}

; Function Attrs: nounwind uwtable
define dso_local i64 @be_lo_from_bytea(ptr noundef %0) #0 {
  %2 = alloca ptr, align 8
  %3 = alloca i32, align 4
  %4 = alloca ptr, align 8
  %5 = alloca ptr, align 8
  %6 = alloca i32, align 4
  store ptr %0, ptr %2, align 8
  call void @llvm.lifetime.start.p0(i64 4, ptr %3) #8
  %7 = load ptr, ptr %2, align 8
  %8 = getelementptr inbounds nuw %struct.FunctionCallInfoBaseData, ptr %7, i32 0, i32 6
  %9 = getelementptr inbounds [0 x %struct.NullableDatum], ptr %8, i64 0, i64 0
  %10 = getelementptr inbounds nuw %struct.NullableDatum, ptr %9, i32 0, i32 0
  %11 = load i64, ptr %10, align 8
  %12 = call i32 @DatumGetObjectId(i64 noundef %11)
  store i32 %12, ptr %3, align 4
  call void @llvm.lifetime.start.p0(i64 8, ptr %4) #8
  %13 = load ptr, ptr %2, align 8
  %14 = getelementptr inbounds nuw %struct.FunctionCallInfoBaseData, ptr %13, i32 0, i32 6
  %15 = getelementptr inbounds [0 x %struct.NullableDatum], ptr %14, i64 0, i64 1
  %16 = getelementptr inbounds nuw %struct.NullableDatum, ptr %15, i32 0, i32 0
  %17 = load i64, ptr %16, align 8
  %18 = call ptr @DatumGetPointer(i64 noundef %17)
  %19 = call ptr @pg_detoast_datum_packed(ptr noundef %18)
  store ptr %19, ptr %4, align 8
  call void @llvm.lifetime.start.p0(i64 8, ptr %5) #8
  call void @llvm.lifetime.start.p0(i64 4, ptr %6) #8
  call void @PreventCommandIfReadOnly(ptr noundef @.str.19)
  store i8 1, ptr @lo_cleanup_needed, align 1
  %20 = load i32, ptr %3, align 4
  %21 = call i32 @inv_create(i32 noundef %20)
  store i32 %21, ptr %3, align 4
  %22 = load i32, ptr %3, align 4
  %23 = load ptr, ptr @CurrentMemoryContext, align 8
  %24 = call ptr @inv_open(i32 noundef %22, i32 noundef 131072, ptr noundef %23)
  store ptr %24, ptr %5, align 8
  %25 = load ptr, ptr %5, align 8
  %26 = load ptr, ptr %4, align 8
  %27 = getelementptr inbounds nuw %struct.varattrib_1b, ptr %26, i32 0, i32 0
  %28 = load i8, ptr %27, align 1
  %29 = zext i8 %28 to i32
  %30 = and i32 %29, 1
  %31 = icmp eq i32 %30, 1
  br i1 %31, label %32, label %36

32:                                               ; preds = %1
  %33 = load ptr, ptr %4, align 8
  %34 = getelementptr inbounds nuw %struct.varattrib_1b, ptr %33, i32 0, i32 1
  %35 = getelementptr inbounds [0 x i8], ptr %34, i64 0, i64 0
  br label %40

36:                                               ; preds = %1
  %37 = load ptr, ptr %4, align 8
  %38 = getelementptr inbounds nuw %struct.anon, ptr %37, i32 0, i32 1
  %39 = getelementptr inbounds [0 x i8], ptr %38, i64 0, i64 0
  br label %40

40:                                               ; preds = %36, %32
  %41 = phi ptr [ %35, %32 ], [ %39, %36 ]
  %42 = load ptr, ptr %4, align 8
  %43 = getelementptr inbounds nuw %struct.varattrib_1b, ptr %42, i32 0, i32 0
  %44 = load i8, ptr %43, align 1
  %45 = zext i8 %44 to i32
  %46 = icmp eq i32 %45, 1
  br i1 %46, label %47, label %75

47:                                               ; preds = %40
  %48 = load ptr, ptr %4, align 8
  %49 = getelementptr inbounds nuw %struct.varattrib_1b_e, ptr %48, i32 0, i32 1
  %50 = load i8, ptr %49, align 1
  %51 = zext i8 %50 to i32
  %52 = icmp eq i32 %51, 1
  br i1 %52, label %53, label %54

53:                                               ; preds = %47
  br label %71

54:                                               ; preds = %47
  %55 = load ptr, ptr %4, align 8
  %56 = getelementptr inbounds nuw %struct.varattrib_1b_e, ptr %55, i32 0, i32 1
  %57 = load i8, ptr %56, align 1
  %58 = zext i8 %57 to i32
  %59 = and i32 %58, -2
  %60 = icmp eq i32 %59, 2
  br i1 %60, label %61, label %62

61:                                               ; preds = %54
  br label %69

62:                                               ; preds = %54
  %63 = load ptr, ptr %4, align 8
  %64 = getelementptr inbounds nuw %struct.varattrib_1b_e, ptr %63, i32 0, i32 1
  %65 = load i8, ptr %64, align 1
  %66 = zext i8 %65 to i32
  %67 = icmp eq i32 %66, 18
  %68 = select i1 %67, i64 16, i64 0
  br label %69

69:                                               ; preds = %62, %61
  %70 = phi i64 [ 8, %61 ], [ %68, %62 ]
  br label %71

71:                                               ; preds = %69, %53
  %72 = phi i64 [ 8, %53 ], [ %70, %69 ]
  %73 = add i64 2, %72
  %74 = sub i64 %73, 2
  br label %101

75:                                               ; preds = %40
  %76 = load ptr, ptr %4, align 8
  %77 = getelementptr inbounds nuw %struct.varattrib_1b, ptr %76, i32 0, i32 0
  %78 = load i8, ptr %77, align 1
  %79 = zext i8 %78 to i32
  %80 = and i32 %79, 1
  %81 = icmp eq i32 %80, 1
  br i1 %81, label %82, label %91

82:                                               ; preds = %75
  %83 = load ptr, ptr %4, align 8
  %84 = getelementptr inbounds nuw %struct.varattrib_1b, ptr %83, i32 0, i32 0
  %85 = load i8, ptr %84, align 1
  %86 = zext i8 %85 to i32
  %87 = ashr i32 %86, 1
  %88 = and i32 %87, 127
  %89 = sext i32 %88 to i64
  %90 = sub i64 %89, 1
  br label %99

91:                                               ; preds = %75
  %92 = load ptr, ptr %4, align 8
  %93 = getelementptr inbounds nuw %struct.anon, ptr %92, i32 0, i32 0
  %94 = load i32, ptr %93, align 4
  %95 = lshr i32 %94, 2
  %96 = and i32 %95, 1073741823
  %97 = sub i32 %96, 4
  %98 = zext i32 %97 to i64
  br label %99

99:                                               ; preds = %91, %82
  %100 = phi i64 [ %90, %82 ], [ %98, %91 ]
  br label %101

101:                                              ; preds = %99, %71
  %102 = phi i64 [ %74, %71 ], [ %100, %99 ]
  %103 = trunc i64 %102 to i32
  %104 = call i32 @inv_write(ptr noundef %25, ptr noundef %41, i32 noundef %103)
  store i32 %104, ptr %6, align 4
  %105 = load ptr, ptr %5, align 8
  call void @inv_close(ptr noundef %105)
  %106 = load i32, ptr %3, align 4
  %107 = call i64 @ObjectIdGetDatum(i32 noundef %106)
  call void @llvm.lifetime.end.p0(i64 4, ptr %6) #8
  call void @llvm.lifetime.end.p0(i64 8, ptr %5) #8
  call void @llvm.lifetime.end.p0(i64 8, ptr %4) #8
  call void @llvm.lifetime.end.p0(i64 4, ptr %3) #8
  ret i64 %107
}