; Function Attrs: nounwind uwtable
define dso_local range(i64 0, 4294967296) i64 @be_lo_from_bytea(ptr noundef readonly captures(none) %0) local_unnamed_addr #0 {
  %2 = getelementptr inbounds nuw i8, ptr %0, i64 32
  %3 = load i64, ptr %2, align 8
  %4 = trunc i64 %3 to i32
  %5 = getelementptr inbounds nuw i8, ptr %0, i64 48
  %6 = load i64, ptr %5, align 8
  %7 = inttoptr i64 %6 to ptr
  %8 = tail call ptr @pg_detoast_datum_packed(ptr noundef %7) #10
  tail call void @PreventCommandIfReadOnly(ptr noundef nonnull @.str.19) #10
  store i1 true, ptr @lo_cleanup_needed, align 1
  %9 = tail call i32 @inv_create(i32 noundef %4) #10
  %10 = load ptr, ptr @CurrentMemoryContext, align 8
  %11 = tail call ptr @inv_open(i32 noundef %9, i32 noundef 131072, ptr noundef %10) #10
  %12 = load i8, ptr %8, align 1
  %13 = zext i8 %12 to i32
  %14 = and i32 %13, 1
  %.not = icmp eq i32 %14, 0
  %15 = getelementptr inbounds nuw i8, ptr %8, i64 1
  %16 = icmp eq i8 %12, 1
  br i1 %16, label %17, label %25

17:                                               ; preds = %1
  %18 = load i8, ptr %15, align 1
  %19 = icmp eq i8 %18, 1
  %20 = and i8 %18, -2
  %21 = icmp eq i8 %20, 2
  %or.cond = or i1 %19, %21
  %22 = icmp eq i8 %18, 18
  %23 = select i1 %22, i32 16, i32 0
  %24 = select i1 %or.cond, i32 8, i32 %23
  br label %33

25:                                               ; preds = %1
  br i1 %.not, label %29, label %26

26:                                               ; preds = %25
  %27 = lshr i32 %13, 1
  %28 = add nsw i32 %27, -1
  br label %33

29:                                               ; preds = %25
  %30 = load i32, ptr %8, align 4
  %31 = lshr i32 %30, 2
  %32 = add nsw i32 %31, -4
  br label %33

33:                                               ; preds = %26, %29, %17
  %34 = phi i32 [ %24, %17 ], [ %28, %26 ], [ %32, %29 ]
  %35 = getelementptr inbounds nuw i8, ptr %8, i64 4
  %36 = select i1 %.not, ptr %35, ptr %15
  %37 = tail call i32 @inv_write(ptr noundef %11, ptr noundef nonnull %36, i32 noundef %34) #10
  tail call void @inv_close(ptr noundef %11) #10
  %38 = zext i32 %9 to i64
  ret i64 %38
}